target datalayout = "e-m:e-p270:32:32-p271:32:32-p272:64:64-i64:64-i128:128-f80:128-n8:16:32:64-S128"
target triple = "x86_64-pc-linux-gnu"

%class.JvmtiMonitorClosure = type { %class.MonitorClosure, ptr, ptr, i32, ptr }
%class.MonitorClosure = type { ptr }

@MaxJavaStackTraceDepth = external global i32, align 4
@_ZTV19JvmtiMonitorClosure = hidden unnamed_addr constant { [3 x ptr] } { [3 x ptr] [ptr null, ptr null, ptr @_ZN19JvmtiMonitorClosure10do_monitorEP13ObjectMonitor] }, align 8
@_ZN6Thread12_thr_currentE = external thread_local global ptr, align 8
@_ZTV14MonitorClosure = linkonce_odr hidden unnamed_addr constant { [3 x ptr] } { [3 x ptr] [ptr null, ptr null, ptr @__cxa_pure_virtual] }, comdat, align 8

; Function Attrs: mustprogress nounwind uwtable
define linkonce_odr hidden void @_ZN14MonitorClosureC2Ev(ptr noundef nonnull align 8 dereferenceable(8) %0) unnamed_addr #1 comdat align 2 {
  %2 = alloca ptr, align 8
  store ptr %0, ptr %2, align 8
  %3 = load ptr, ptr %2, align 8
  store ptr getelementptr inbounds inrange(-16, 8) ({ [3 x ptr] }, ptr @_ZTV14MonitorClosure, i32 0, i32 0, i32 2), ptr %3, align 8
  ret void
}

; Function Attrs: mustprogress nounwind uwtable
define linkonce_odr hidden noundef ptr @_ZN6Thread15current_or_nullEv() #1 comdat align 2 {
  %1 = call align 8 ptr @llvm.threadlocal.address.p0(ptr align 8 @_ZN6Thread12_thr_currentE)
  %2 = load ptr, ptr %1, align 8
  ret ptr %2
}

; Function Attrs: mustprogress nounwind uwtable
define linkonce_odr hidden noundef i32 @_ZN19JvmtiMonitorClosure5errorEv(ptr noundef nonnull align 8 dereferenceable(40) %0) #1 comdat align 2 {
  %2 = alloca ptr, align 8
  store ptr %0, ptr %2, align 8
  %3 = load ptr, ptr %2, align 8
  %4 = getelementptr inbounds %class.JvmtiMonitorClosure, ptr %3, i32 0, i32 3
  %5 = load i32, ptr %4, align 8
  ret i32 %5
}

; Function Attrs: mustprogress nounwind uwtable
define linkonce_odr hidden void @_ZN19JvmtiMonitorClosureC2EP10JavaThreadP13GrowableArrayIP26jvmtiMonitorStackDepthInfoEP12JvmtiEnvBase(ptr noundef nonnull align 8 dereferenceable(40) %0, ptr noundef %1, ptr noundef %2, ptr noundef %3) unnamed_addr #1 comdat align 2 {
  %5 = alloca ptr, align 8
  %6 = alloca ptr, align 8
  %7 = alloca ptr, align 8
  %8 = alloca ptr, align 8
  store ptr %0, ptr %5, align 8
  store ptr %1, ptr %6, align 8
  store ptr %2, ptr %7, align 8
  store ptr %3, ptr %8, align 8
  %9 = load ptr, ptr %5, align 8
  call void @_ZN14MonitorClosureC2Ev(ptr noundef nonnull align 8 dereferenceable(8) %9) #10
  store ptr getelementptr inbounds inrange(-16, 8) ({ [3 x ptr] }, ptr @_ZTV19JvmtiMonitorClosure, i32 0, i32 0, i32 2), ptr %9, align 8
  %10 = load ptr, ptr %6, align 8
  %11 = getelementptr inbounds %class.JvmtiMonitorClosure, ptr %9, i32 0, i32 1
  store ptr %10, ptr %11, align 8
  %12 = load ptr, ptr %7, align 8
  %13 = getelementptr inbounds %class.JvmtiMonitorClosure, ptr %9, i32 0, i32 2
  store ptr %12, ptr %13, align 8
  %14 = getelementptr inbounds %class.JvmtiMonitorClosure, ptr %9, i32 0, i32 3
  store i32 0, ptr %14, align 8
  %15 = load ptr, ptr %8, align 8
  %16 = getelementptr inbounds %class.JvmtiMonitorClosure, ptr %9, i32 0, i32 4
  store ptr %15, ptr %16, align 8
  ret void
}

; Function Attrs: mustprogress nounwind uwtable
define linkonce_odr hidden noundef ptr @_ZN6Thread7currentEv() #1 comdat align 2 {
  %1 = alloca ptr, align 8
  %2 = call noundef ptr @_ZN6Thread15current_or_nullEv()
  store ptr %2, ptr %1, align 8
  %3 = load ptr, ptr %1, align 8
  ret ptr %3
}

; Function Attrs: mustprogress nounwind uwtable
define hidden noundef i32 @_ZN12JvmtiEnvBase18get_owned_monitorsEP10JavaThreadS1_P10javaVFrameP13GrowableArrayIP26jvmtiMonitorStackDepthInfoE(ptr noundef nonnull align 8 dereferenceable(460) %0, ptr noundef %1, ptr noundef %2, ptr noundef %3, ptr noundef %4) #1 align 2 {
  %6 = alloca i32, align 4
  %7 = alloca ptr, align 8
  %8 = alloca ptr, align 8
  %9 = alloca ptr, align 8
  %10 = alloca ptr, align 8
  %11 = alloca ptr, align 8
  %12 = alloca i32, align 4
  %13 = alloca ptr, align 8
  %14 = alloca i32, align 4
  %15 = alloca %class.JvmtiMonitorClosure, align 8
  store ptr %0, ptr %7, align 8
  store ptr %1, ptr %8, align 8
  store ptr %2, ptr %9, align 8
  store ptr %3, ptr %10, align 8
  store ptr %4, ptr %11, align 8
  %16 = load ptr, ptr %7, align 8
  store i32 0, ptr %12, align 4
  %17 = call noundef ptr @_ZN6Thread7currentEv()
  store ptr %17, ptr %13, align 8
  store i32 0, ptr %14, align 4
  br label %18

18:                                               ; preds = %43, %5
  %19 = load ptr, ptr %10, align 8
  %20 = icmp ne ptr %19, null
  br i1 %20, label %21, label %46

21:                                               ; preds = %18
  %22 = load i32, ptr @MaxJavaStackTraceDepth, align 4
  %23 = icmp eq i32 %22, 0
  br i1 %23, label %29, label %24

24:                                               ; preds = %21
  %25 = load i32, ptr %14, align 4
  %26 = add nsw i32 %25, 1
  store i32 %26, ptr %14, align 4
  %27 = load i32, ptr @MaxJavaStackTraceDepth, align 4
  %28 = icmp slt i32 %25, %27
  br i1 %28, label %29, label %42

29:                                               ; preds = %24, %21
  %30 = load ptr, ptr %8, align 8
  %31 = load ptr, ptr %9, align 8
  %32 = load ptr, ptr %10, align 8
  %33 = load ptr, ptr %11, align 8
  %34 = load i32, ptr %14, align 4
  %35 = sub nsw i32 %34, 1
  %36 = call noundef i32 @_ZN12JvmtiEnvBase27get_locked_objects_in_frameEP10JavaThreadS1_P10javaVFrameP13GrowableArrayIP26jvmtiMonitorStackDepthInfoEi(ptr noundef nonnull align 8 dereferenceable(460) %16, ptr noundef %30, ptr noundef %31, ptr noundef %32, ptr noundef %33, i32 noundef %35)
  store i32 %36, ptr %12, align 4
  %37 = load i32, ptr %12, align 4
  %38 = icmp ne i32 %37, 0
  br i1 %38, label %39, label %41

39:                                               ; preds = %29
  %40 = load i32, ptr %12, align 4
  store i32 %40, ptr %6, align 4
  br label %52

41:                                               ; preds = %29
  br label %42

42:                                               ; preds = %41, %24
  br label %43

43:                                               ; preds = %42
  %44 = load ptr, ptr %10, align 8
  %45 = call noundef ptr @_ZNK6vframe11java_senderEv(ptr noundef nonnull align 8 dereferenceable(5064) %44)
  store ptr %45, ptr %10, align 8
  br label %18, !llvm.loop !28

46:                                               ; preds = %18
  %47 = load ptr, ptr %8, align 8
  %48 = load ptr, ptr %11, align 8
  call void @_ZN19JvmtiMonitorClosureC2EP10JavaThreadP13GrowableArrayIP26jvmtiMonitorStackDepthInfoEP12JvmtiEnvBase(ptr noundef nonnull align 8 dereferenceable(40) %15, ptr noundef %47, ptr noundef %48, ptr noundef %16)
  %49 = load ptr, ptr %9, align 8
  call void @_ZN18ObjectSynchronizer22owned_monitors_iterateEP14MonitorClosureP10JavaThread(ptr noundef %15, ptr noundef %49)
  %50 = call noundef i32 @_ZN19JvmtiMonitorClosure5errorEv(ptr noundef nonnull align 8 dereferenceable(40) %15)
  store i32 %50, ptr %12, align 4
  %51 = load i32, ptr %12, align 4
  store i32 %51, ptr %6, align 4
  br label %52

52:                                               ; preds = %46, %39
  %53 = load i32, ptr %6, align 4
  ret i32 %53
}