; Function Attrs: mustprogress nounwind uwtable
define hidden noundef i32 @_ZN12JvmtiEnvBase18get_owned_monitorsEP10JavaThreadS1_P10javaVFrameP13GrowableArrayIP26jvmtiMonitorStackDepthInfoE(ptr noundef nonnull align 8 dereferenceable(460) %0, ptr noundef %1, ptr noundef %2, ptr noundef %3, ptr noundef %4) local_unnamed_addr #0 align 2 {
  %6 = alloca %class.JvmtiMonitorClosure, align 8
  %.not20 = icmp eq ptr %3, null
  br i1 %.not20, label %._crit_edge, label %.lr.ph

.lr.ph:                                           ; preds = %5, %15
  %.022 = phi i32 [ %.2, %15 ], [ 0, %5 ]
  %.01621 = phi ptr [ %16, %15 ], [ %3, %5 ]
  %7 = load i32, ptr @MaxJavaStackTraceDepth, align 4
  %8 = icmp eq i32 %7, 0
  br i1 %8, label %12, label %9

9:                                                ; preds = %.lr.ph
  %10 = add nsw i32 %.022, 1
  %11 = icmp slt i32 %.022, %7
  br i1 %11, label %12, label %15

12:                                               ; preds = %9, %.lr.ph
  %.1 = phi i32 [ %.022, %.lr.ph ], [ %10, %9 ]
  %13 = add nsw i32 %.1, -1
  %14 = tail call noundef i32 @_ZN12JvmtiEnvBase27get_locked_objects_in_frameEP10JavaThreadS1_P10javaVFrameP13GrowableArrayIP26jvmtiMonitorStackDepthInfoEi(ptr nonnull align 8 poison, ptr noundef %1, ptr noundef %2, ptr noundef nonnull %.01621, ptr noundef %4, i32 noundef %13)
  %.not19 = icmp eq i32 %14, 0
  br i1 %.not19, label %15, label %.loopexit

15:                                               ; preds = %9, %12
  %.2 = phi i32 [ %.1, %12 ], [ %10, %9 ]
  %16 = tail call noundef ptr @_ZNK6vframe11java_senderEv(ptr noundef nonnull align 8 dereferenceable(5064) %.01621) #18
  %.not = icmp eq ptr %16, null
  br i1 %.not, label %._crit_edge, label %.lr.ph, !llvm.loop !47

._crit_edge:                                      ; preds = %15, %5
  store ptr getelementptr inbounds inrange(-16, 8) (i8, ptr @_ZTV19JvmtiMonitorClosure, i64 16), ptr %6, align 8
  %17 = getelementptr inbounds i8, ptr %6, i64 8
  store ptr %1, ptr %17, align 8
  %18 = getelementptr inbounds i8, ptr %6, i64 16
  store ptr %4, ptr %18, align 8
  %19 = getelementptr inbounds i8, ptr %6, i64 24
  store i32 0, ptr %19, align 8
  %20 = getelementptr inbounds i8, ptr %6, i64 32
  store ptr %0, ptr %20, align 8
  call void @_ZN18ObjectSynchronizer22owned_monitors_iterateEP14MonitorClosureP10JavaThread(ptr noundef nonnull %6, ptr noundef %2) #18
  %21 = load i32, ptr %19, align 8
  br label %.loopexit

.loopexit:                                        ; preds = %12, %._crit_edge
  %.015 = phi i32 [ %21, %._crit_edge ], [ %14, %12 ]
  ret i32 %.015
}